target datalayout = "e-m:e-p270:32:32-p271:32:32-p272:64:64-i64:64-i128:128-f80:128-n8:16:32:64-S128"
target triple = "x86_64-pc-linux-gnu"

; Function Attrs: alwaysinline nounwind uwtable
define internal i32 @rv40_loop_filter_strength(ptr noundef %0, i32 noundef %1, i64 noundef %2, i32 noundef %3, i32 noundef %4, i32 noundef %5, ptr noundef %6, ptr noundef %7) #5 {
  %9 = alloca i32, align 4
  %10 = alloca ptr, align 8
  %11 = alloca i32, align 4
  %12 = alloca i64, align 8
  %13 = alloca i32, align 4
  %14 = alloca i32, align 4
  %15 = alloca i32, align 4
  %16 = alloca ptr, align 8
  %17 = alloca ptr, align 8
  %18 = alloca i32, align 4
  %19 = alloca i32, align 4
  %20 = alloca i32, align 4
  %21 = alloca i32, align 4
  %22 = alloca i32, align 4
  %23 = alloca i32, align 4
  %24 = alloca ptr, align 8
  %25 = alloca i32, align 4
  %26 = alloca i32, align 4
  store ptr %0, ptr %10, align 8, !tbaa !10
  store i32 %1, ptr %11, align 4, !tbaa !14
  store i64 %2, ptr %12, align 8, !tbaa !12
  store i32 %3, ptr %13, align 4, !tbaa !14
  store i32 %4, ptr %14, align 4, !tbaa !14
  store i32 %5, ptr %15, align 4, !tbaa !14
  store ptr %6, ptr %16, align 8, !tbaa !34
  store ptr %7, ptr %17, align 8, !tbaa !34
  call void @llvm.lifetime.start.p0(i64 4, ptr %18) #7
  store i32 0, ptr %18, align 4, !tbaa !14
  call void @llvm.lifetime.start.p0(i64 4, ptr %19) #7
  store i32 0, ptr %19, align 4, !tbaa !14
  call void @llvm.lifetime.start.p0(i64 4, ptr %20) #7
  store i32 0, ptr %20, align 4, !tbaa !14
  call void @llvm.lifetime.start.p0(i64 4, ptr %21) #7
  store i32 0, ptr %21, align 4, !tbaa !14
  call void @llvm.lifetime.start.p0(i64 4, ptr %22) #7
  store i32 0, ptr %22, align 4, !tbaa !14
  call void @llvm.lifetime.start.p0(i64 4, ptr %23) #7
  store i32 0, ptr %23, align 4, !tbaa !14
  call void @llvm.lifetime.start.p0(i64 8, ptr %24) #7
  call void @llvm.lifetime.start.p0(i64 4, ptr %25) #7
  store i32 0, ptr %25, align 4, !tbaa !14
  %27 = load ptr, ptr %10, align 8, !tbaa !10
  store ptr %27, ptr %24, align 8, !tbaa !10
  br label %28

28:                                               ; preds = %66, %8
  %29 = load i32, ptr %25, align 4, !tbaa !14
  %30 = icmp slt i32 %29, 4
  br i1 %30, label %31, label %72

31:                                               ; preds = %28
  %32 = load ptr, ptr %24, align 8, !tbaa !10
  %33 = load i32, ptr %11, align 4, !tbaa !14
  %34 = mul nsw i32 -2, %33
  %35 = sext i32 %34 to i64
  %36 = getelementptr inbounds i8, ptr %32, i64 %35
  %37 = load i8, ptr %36, align 1, !tbaa !16
  %38 = zext i8 %37 to i32
  %39 = load ptr, ptr %24, align 8, !tbaa !10
  %40 = load i32, ptr %11, align 4, !tbaa !14
  %41 = mul nsw i32 -1, %40
  %42 = sext i32 %41 to i64
  %43 = getelementptr inbounds i8, ptr %39, i64 %42
  %44 = load i8, ptr %43, align 1, !tbaa !16
  %45 = zext i8 %44 to i32
  %46 = sub nsw i32 %38, %45
  %47 = load i32, ptr %18, align 4, !tbaa !14
  %48 = add nsw i32 %47, %46
  store i32 %48, ptr %18, align 4, !tbaa !14
  %49 = load ptr, ptr %24, align 8, !tbaa !10
  %50 = load i32, ptr %11, align 4, !tbaa !14
  %51 = mul nsw i32 1, %50
  %52 = sext i32 %51 to i64
  %53 = getelementptr inbounds i8, ptr %49, i64 %52
  %54 = load i8, ptr %53, align 1, !tbaa !16
  %55 = zext i8 %54 to i32
  %56 = load ptr, ptr %24, align 8, !tbaa !10
  %57 = load i32, ptr %11, align 4, !tbaa !14
  %58 = mul nsw i32 0, %57
  %59 = sext i32 %58 to i64
  %60 = getelementptr inbounds i8, ptr %56, i64 %59
  %61 = load i8, ptr %60, align 1, !tbaa !16
  %62 = zext i8 %61 to i32
  %63 = sub nsw i32 %55, %62
  %64 = load i32, ptr %19, align 4, !tbaa !14
  %65 = add nsw i32 %64, %63
  store i32 %65, ptr %19, align 4, !tbaa !14
  br label %66

66:                                               ; preds = %31
  %67 = load i32, ptr %25, align 4, !tbaa !14
  %68 = add nsw i32 %67, 1
  store i32 %68, ptr %25, align 4, !tbaa !14
  %69 = load i64, ptr %12, align 8, !tbaa !12
  %70 = load ptr, ptr %24, align 8, !tbaa !10
  %71 = getelementptr inbounds i8, ptr %70, i64 %69
  store ptr %71, ptr %24, align 8, !tbaa !10
  br label %28, !llvm.loop !46

72:                                               ; preds = %28
  %73 = load i32, ptr %18, align 4, !tbaa !14
  %74 = icmp sge i32 %73, 0
  br i1 %74, label %75, label %77

75:                                               ; preds = %72
  %76 = load i32, ptr %18, align 4, !tbaa !14
  br label %80

77:                                               ; preds = %72
  %78 = load i32, ptr %18, align 4, !tbaa !14
  %79 = sub nsw i32 0, %78
  br label %80

80:                                               ; preds = %77, %75
  %81 = phi i32 [ %76, %75 ], [ %79, %77 ]
  %82 = load i32, ptr %13, align 4, !tbaa !14
  %83 = shl i32 %82, 2
  %84 = icmp slt i32 %81, %83
  %85 = zext i1 %84 to i32
  %86 = load ptr, ptr %16, align 8, !tbaa !34
  store i32 %85, ptr %86, align 4, !tbaa !14
  %87 = load i32, ptr %19, align 4, !tbaa !14
  %88 = icmp sge i32 %87, 0
  br i1 %88, label %89, label %91

89:                                               ; preds = %80
  %90 = load i32, ptr %19, align 4, !tbaa !14
  br label %94

91:                                               ; preds = %80
  %92 = load i32, ptr %19, align 4, !tbaa !14
  %93 = sub nsw i32 0, %92
  br label %94

94:                                               ; preds = %91, %89
  %95 = phi i32 [ %90, %89 ], [ %93, %91 ]
  %96 = load i32, ptr %13, align 4, !tbaa !14
  %97 = shl i32 %96, 2
  %98 = icmp slt i32 %95, %97
  %99 = zext i1 %98 to i32
  %100 = load ptr, ptr %17, align 8, !tbaa !34
  store i32 %99, ptr %100, align 4, !tbaa !14
  %101 = load ptr, ptr %16, align 8, !tbaa !34
  %102 = load i32, ptr %101, align 4, !tbaa !14
  %103 = icmp ne i32 %102, 0
  br i1 %103, label %109, label %104

104:                                              ; preds = %94
  %105 = load ptr, ptr %17, align 8, !tbaa !34
  %106 = load i32, ptr %105, align 4, !tbaa !14
  %107 = icmp ne i32 %106, 0
  br i1 %107, label %109, label %108

108:                                              ; preds = %104
  store i32 0, ptr %9, align 4
  store i32 1, ptr %26, align 4
  br label %204

109:                                              ; preds = %104, %94
  %110 = load i32, ptr %15, align 4, !tbaa !14
  %111 = icmp ne i32 %110, 0
  br i1 %111, label %113, label %112

112:                                              ; preds = %109
  store i32 0, ptr %9, align 4
  store i32 1, ptr %26, align 4
  br label %204

113:                                              ; preds = %109
  store i32 0, ptr %25, align 4, !tbaa !14
  %114 = load ptr, ptr %10, align 8, !tbaa !10
  store ptr %114, ptr %24, align 8, !tbaa !10
  br label %115

115:                                              ; preds = %153, %113
  %116 = load i32, ptr %25, align 4, !tbaa !14
  %117 = icmp slt i32 %116, 4
  br i1 %117, label %118, label %159

118:                                              ; preds = %115
  %119 = load ptr, ptr %24, align 8, !tbaa !10
  %120 = load i32, ptr %11, align 4, !tbaa !14
  %121 = mul nsw i32 -2, %120
  %122 = sext i32 %121 to i64
  %123 = getelementptr inbounds i8, ptr %119, i64 %122
  %124 = load i8, ptr %123, align 1, !tbaa !16
  %125 = zext i8 %124 to i32
  %126 = load ptr, ptr %24, align 8, !tbaa !10
  %127 = load i32, ptr %11, align 4, !tbaa !14
  %128 = mul nsw i32 -3, %127
  %129 = sext i32 %128 to i64
  %130 = getelementptr inbounds i8, ptr %126, i64 %129
  %131 = load i8, ptr %130, align 1, !tbaa !16
  %132 = zext i8 %131 to i32
  %133 = sub nsw i32 %125, %132
  %134 = load i32, ptr %20, align 4, !tbaa !14
  %135 = add nsw i32 %134, %133
  store i32 %135, ptr %20, align 4, !tbaa !14
  %136 = load ptr, ptr %24, align 8, !tbaa !10
  %137 = load i32, ptr %11, align 4, !tbaa !14
  %138 = mul nsw i32 1, %137
  %139 = sext i32 %138 to i64
  %140 = getelementptr inbounds i8, ptr %136, i64 %139
  %141 = load i8, ptr %140, align 1, !tbaa !16
  %142 = zext i8 %141 to i32
  %143 = load ptr, ptr %24, align 8, !tbaa !10
  %144 = load i32, ptr %11, align 4, !tbaa !14
  %145 = mul nsw i32 2, %144
  %146 = sext i32 %145 to i64
  %147 = getelementptr inbounds i8, ptr %143, i64 %146
  %148 = load i8, ptr %147, align 1, !tbaa !16
  %149 = zext i8 %148 to i32
  %150 = sub nsw i32 %142, %149
  %151 = load i32, ptr %21, align 4, !tbaa !14
  %152 = add nsw i32 %151, %150
  store i32 %152, ptr %21, align 4, !tbaa !14
  br label %153

153:                                              ; preds = %118
  %154 = load i32, ptr %25, align 4, !tbaa !14
  %155 = add nsw i32 %154, 1
  store i32 %155, ptr %25, align 4, !tbaa !14
  %156 = load i64, ptr %12, align 8, !tbaa !12
  %157 = load ptr, ptr %24, align 8, !tbaa !10
  %158 = getelementptr inbounds i8, ptr %157, i64 %156
  store ptr %158, ptr %24, align 8, !tbaa !10
  br label %115, !llvm.loop !47

159:                                              ; preds = %115
  %160 = load ptr, ptr %16, align 8, !tbaa !34
  %161 = load i32, ptr %160, align 4, !tbaa !14
  %162 = icmp ne i32 %161, 0
  br i1 %162, label %163, label %175

163:                                              ; preds = %159
  %164 = load i32, ptr %20, align 4, !tbaa !14
  %165 = icmp sge i32 %164, 0
  br i1 %165, label %166, label %168

166:                                              ; preds = %163
  %167 = load i32, ptr %20, align 4, !tbaa !14
  br label %171

168:                                              ; preds = %163
  %169 = load i32, ptr %20, align 4, !tbaa !14
  %170 = sub nsw i32 0, %169
  br label %171

171:                                              ; preds = %168, %166
  %172 = phi i32 [ %167, %166 ], [ %170, %168 ]
  %173 = load i32, ptr %14, align 4, !tbaa !14
  %174 = icmp slt i32 %172, %173
  br label %175

175:                                              ; preds = %171, %159
  %176 = phi i1 [ false, %159 ], [ %174, %171 ]
  %177 = zext i1 %176 to i32
  store i32 %177, ptr %22, align 4, !tbaa !14
  %178 = load ptr, ptr %17, align 8, !tbaa !34
  %179 = load i32, ptr %178, align 4, !tbaa !14
  %180 = icmp ne i32 %179, 0
  br i1 %180, label %181, label %193

181:                                              ; preds = %175
  %182 = load i32, ptr %21, align 4, !tbaa !14
  %183 = icmp sge i32 %182, 0
  br i1 %183, label %184, label %186

184:                                              ; preds = %181
  %185 = load i32, ptr %21, align 4, !tbaa !14
  br label %189

186:                                              ; preds = %181
  %187 = load i32, ptr %21, align 4, !tbaa !14
  %188 = sub nsw i32 0, %187
  br label %189

189:                                              ; preds = %186, %184
  %190 = phi i32 [ %185, %184 ], [ %188, %186 ]
  %191 = load i32, ptr %14, align 4, !tbaa !14
  %192 = icmp slt i32 %190, %191
  br label %193

193:                                              ; preds = %189, %175
  %194 = phi i1 [ false, %175 ], [ %192, %189 ]
  %195 = zext i1 %194 to i32
  store i32 %195, ptr %23, align 4, !tbaa !14
  %196 = load i32, ptr %22, align 4, !tbaa !14
  %197 = icmp ne i32 %196, 0
  br i1 %197, label %198, label %201

198:                                              ; preds = %193
  %199 = load i32, ptr %23, align 4, !tbaa !14
  %200 = icmp ne i32 %199, 0
  br label %201

201:                                              ; preds = %198, %193
  %202 = phi i1 [ false, %193 ], [ %200, %198 ]
  %203 = zext i1 %202 to i32
  store i32 %203, ptr %9, align 4
  store i32 1, ptr %26, align 4
  br label %204

204:                                              ; preds = %201, %112, %108
  call void @llvm.lifetime.end.p0(i64 4, ptr %25) #7
  call void @llvm.lifetime.end.p0(i64 8, ptr %24) #7
  call void @llvm.lifetime.end.p0(i64 4, ptr %23) #7
  call void @llvm.lifetime.end.p0(i64 4, ptr %22) #7
  call void @llvm.lifetime.end.p0(i64 4, ptr %21) #7
  call void @llvm.lifetime.end.p0(i64 4, ptr %20) #7
  call void @llvm.lifetime.end.p0(i64 4, ptr %19) #7
  call void @llvm.lifetime.end.p0(i64 4, ptr %18) #7
  %205 = load i32, ptr %9, align 4
  ret i32 %205
}

; Function Attrs: nounwind uwtable
define internal i32 @rv40_h_loop_filter_strength(ptr noundef %0, i64 noundef %1, i32 noundef %2, i32 noundef %3, i32 noundef %4, ptr noundef %5, ptr noundef %6) #3 {
  %8 = alloca ptr, align 8
  %9 = alloca i64, align 8
  %10 = alloca i32, align 4
  %11 = alloca i32, align 4
  %12 = alloca i32, align 4
  %13 = alloca ptr, align 8
  %14 = alloca ptr, align 8
  store ptr %0, ptr %8, align 8, !tbaa !10
  store i64 %1, ptr %9, align 8, !tbaa !12
  store i32 %2, ptr %10, align 4, !tbaa !14
  store i32 %3, ptr %11, align 4, !tbaa !14
  store i32 %4, ptr %12, align 4, !tbaa !14
  store ptr %5, ptr %13, align 8, !tbaa !34
  store ptr %6, ptr %14, align 8, !tbaa !34
  %15 = load ptr, ptr %8, align 8, !tbaa !10
  %16 = load i64, ptr %9, align 8, !tbaa !12
  %17 = trunc i64 %16 to i32
  %18 = load i32, ptr %10, align 4, !tbaa !14
  %19 = load i32, ptr %11, align 4, !tbaa !14
  %20 = load i32, ptr %12, align 4, !tbaa !14
  %21 = load ptr, ptr %13, align 8, !tbaa !34
  %22 = load ptr, ptr %14, align 8, !tbaa !34
  %23 = call i32 @rv40_loop_filter_strength(ptr noundef %15, i32 noundef %17, i64 noundef 1, i32 noundef %18, i32 noundef %19, i32 noundef %20, ptr noundef %21, ptr noundef %22)
  ret i32 %23
}