; Function Attrs: nofree norecurse nosync nounwind memory(argmem: readwrite) uwtable
define internal range(i32 0, 2) i32 @rv40_h_loop_filter_strength(ptr noundef readonly captures(none) %0, i64 noundef %1, i32 noundef %2, i32 noundef %3, i32 noundef %4, ptr noundef captures(none) %5, ptr noundef writeonly captures(none) %6) #3 {
  %sext8 = mul i64 %1, -8589934592
  %8 = ashr exact i64 %sext8, 32
  %.neg = mul i64 %1, -4294967296
  %9 = ashr exact i64 %.neg, 32
  %sext10 = shl i64 %1, 32
  %10 = ashr exact i64 %sext10, 32
  br label %11

11:                                               ; preds = %7, %11
  %.0.i18 = phi i32 [ 0, %7 ], [ %27, %11 ]
  %.055.i17 = phi ptr [ %0, %7 ], [ %28, %11 ]
  %.059.i16 = phi i32 [ 0, %7 ], [ %26, %11 ]
  %.060.i15 = phi i32 [ 0, %7 ], [ %19, %11 ]
  %12 = getelementptr inbounds i8, ptr %.055.i17, i64 %8
  %13 = load i8, ptr %12, align 1, !tbaa !8
  %14 = zext i8 %13 to i32
  %15 = getelementptr inbounds i8, ptr %.055.i17, i64 %9
  %16 = load i8, ptr %15, align 1, !tbaa !8
  %17 = zext i8 %16 to i32
  %18 = add i32 %.060.i15, %14
  %19 = sub i32 %18, %17
  %20 = getelementptr inbounds i8, ptr %.055.i17, i64 %10
  %21 = load i8, ptr %20, align 1, !tbaa !8
  %22 = zext i8 %21 to i32
  %23 = load i8, ptr %.055.i17, align 1, !tbaa !8
  %24 = zext i8 %23 to i32
  %25 = add i32 %.059.i16, %22
  %26 = sub i32 %25, %24
  %27 = add nuw nsw i32 %.0.i18, 1
  %28 = getelementptr inbounds nuw i8, ptr %.055.i17, i64 1
  %exitcond.not = icmp eq i32 %27, 4
  br i1 %exitcond.not, label %29, label %11, !llvm.loop !34

29:                                               ; preds = %11
  %30 = tail call i32 @llvm.abs.i32(i32 %19, i1 true)
  %31 = shl i32 %2, 2
  %32 = icmp slt i32 %30, %31
  %33 = zext i1 %32 to i32
  store i32 %33, ptr %5, align 4, !tbaa !9
  %34 = tail call i32 @llvm.abs.i32(i32 %26, i1 true)
  %35 = icmp slt i32 %34, %31
  %36 = zext i1 %35 to i32
  store i32 %36, ptr %6, align 4, !tbaa !9
  %37 = load i32, ptr %5, align 4, !tbaa !9
  %.not.i = icmp ne i32 %37, 0
  %brmerge.i = select i1 %.not.i, i1 true, i1 %35
  %.not62.i = icmp ne i32 %4, 0
  %or.cond.i.not = and i1 %.not62.i, %brmerge.i
  br i1 %or.cond.i.not, label %.preheader, label %rv40_loop_filter_strength.exit

.preheader:                                       ; preds = %29
  %38 = trunc i64 %1 to i32
  %sext6 = mul i64 %1, -12884901888
  %39 = ashr exact i64 %sext6, 32
  %40 = shl nsw i32 %38, 1
  %41 = sext i32 %40 to i64
  br label %42

42:                                               ; preds = %.preheader, %42
  %.1.i22 = phi i32 [ 0, %.preheader ], [ %59, %42 ]
  %.156.i21 = phi ptr [ %0, %.preheader ], [ %60, %42 ]
  %.057.i20 = phi i32 [ 0, %.preheader ], [ %58, %42 ]
  %.058.i19 = phi i32 [ 0, %.preheader ], [ %50, %42 ]
  %43 = getelementptr inbounds i8, ptr %.156.i21, i64 %8
  %44 = load i8, ptr %43, align 1, !tbaa !8
  %45 = zext i8 %44 to i32
  %46 = getelementptr inbounds i8, ptr %.156.i21, i64 %39
  %47 = load i8, ptr %46, align 1, !tbaa !8
  %48 = zext i8 %47 to i32
  %49 = add i32 %.058.i19, %45
  %50 = sub i32 %49, %48
  %51 = getelementptr inbounds i8, ptr %.156.i21, i64 %10
  %52 = load i8, ptr %51, align 1, !tbaa !8
  %53 = zext i8 %52 to i32
  %54 = getelementptr inbounds i8, ptr %.156.i21, i64 %41
  %55 = load i8, ptr %54, align 1, !tbaa !8
  %56 = zext i8 %55 to i32
  %57 = add i32 %.057.i20, %53
  %58 = sub i32 %57, %56
  %59 = add nuw nsw i32 %.1.i22, 1
  %60 = getelementptr inbounds nuw i8, ptr %.156.i21, i64 1
  %exitcond26.not = icmp eq i32 %59, 4
  br i1 %exitcond26.not, label %61, label %42, !llvm.loop !35

61:                                               ; preds = %42
  %62 = tail call i32 @llvm.abs.i32(i32 %50, i1 true)
  %63 = icmp slt i32 %62, %3
  %64 = select i1 %.not.i, i1 %63, i1 false
  %65 = tail call i32 @llvm.abs.i32(i32 %58, i1 true)
  %66 = icmp slt i32 %65, %3
  %67 = select i1 %64, i1 %35, i1 false
  %68 = select i1 %67, i1 %66, i1 false
  %69 = zext i1 %68 to i32
  br label %rv40_loop_filter_strength.exit

rv40_loop_filter_strength.exit:                   ; preds = %29, %61
  %.061.i = phi i32 [ %69, %61 ], [ 0, %29 ]
  ret i32 %.061.i
}